EXPORTS
    _ZN10InPortSync10initializeEv @1
    _ZN10InPortSync10sendCreditEii @2
    _ZN10InPortSync11getFlitInfoEP10NoCFlitMsg @3
    _ZN10InPortSync12handleGntMsgEP9NoCGntMsg @4
    _ZN10InPortSync13handleMessageEPN7omnetpp8cMessageE @5
    _ZN10InPortSync14measureQlengthEv @6
    _ZN10InPortSync15handleInFlitMsgEP10NoCFlitMsg @7
    _ZN10InPortSync16handleCalcOPRespEP10NoCFlitMsg @8
    _ZN10InPortSync16handleCalcVCRespEP10NoCFlitMsg @9
    _ZN10InPortSync6finishEv @10
    _ZN10InPortSync7sendReqEP10NoCFlitMsg @11
    _ZN10InPortSync8sendFlitEP10NoCFlitMsg @12
    _ZN10InPortSyncC2Ev @13
    _ZN10InPortSyncD0Ev @14
    _ZN10InPortSyncD1Ev @15
    _ZN10InPortSyncD2Ev @16
    _ZN10NoCFlitMsg10setFlitIdxEi @17
    _ZN10NoCFlitMsg11setFirstNetEb @18
    _ZN10NoCFlitMsg12parsimUnpackEPN7omnetpp11cCommBufferE @19
    _ZN10NoCFlitMsg13setInjectTimeEN7omnetpp7SimTimeE @20
    _ZN10NoCFlitMsg15setFirstNetTimeEN7omnetpp7SimTimeE @21
    _ZN10NoCFlitMsg4copyERKS_ @22
    _ZN10NoCFlitMsg5setSLEi @23
    _ZN10NoCFlitMsg5setVCEi @24
    _ZN10NoCFlitMsg7setTypeEi @25
    _ZN10NoCFlitMsg8setDstIdEi @26
    _ZN10NoCFlitMsg8setFlitsEi @27
    _ZN10NoCFlitMsg8setPktIdEi @28
    _ZN10NoCFlitMsg8setSrcIdEi @29
    _ZN10NoCFlitMsgC1EPKcs @30
    _ZN10NoCFlitMsgC1ERKS_ @31
    _ZN10NoCFlitMsgC2EPKcs @32
    _ZN10NoCFlitMsgC2ERKS_ @33
    _ZN10NoCFlitMsgD0Ev @34
    _ZN10NoCFlitMsgD1Ev @35
    _ZN10NoCFlitMsgD2Ev @36
    _ZN10NoCFlitMsgaSERKS_ @37
    _ZN10PktFifoSrc10initializeEv @38
    _ZN10PktFifoSrc12handleGenMsgEPN7omnetpp8cMessageE @39
    _ZN10PktFifoSrc12handlePopMsgEPN7omnetpp8cMessageE @40
    _ZN10PktFifoSrc13handleMessageEPN7omnetpp8cMessageE @41
    _ZN10PktFifoSrc13sendFlitFromQEv @42
    _ZN10PktFifoSrc15handleCreditMsgEP12NoCCreditMsg @43
    _ZN10PktFifoSrc6finishEv @44
    _ZN10PktFifoSrcC2Ev @45
    _ZN10PktFifoSrcD0Ev @46
    _ZN10PktFifoSrcD1Ev @47
    _ZN10PktFifoSrcD2Ev @48
    _ZN10SchedAsync10initializeEv @49
    _ZN10SchedAsync11incrVCUsageEi @50
    _ZN10SchedAsync12handleAckMsgEP9NoCAckMsg @51
    _ZN10SchedAsync12handlePopMsgEPN7omnetpp8cMessageE @52
    _ZN10SchedAsync12handleReqMsgEP9NoCReqMsg @53
    _ZN10SchedAsync13handleFlitMsgEP10NoCFlitMsg @54
    _ZN10SchedAsync13handleMessageEPN7omnetpp8cMessageE @55
    _ZN10SchedAsync15handleCreditMsgEP12NoCCreditMsg @56
    _ZN10SchedAsync16measureNumUsedVCEv @57
    _ZN10SchedAsync6finishEv @58
    _ZN10SchedAsync9arbitrateEv @59
    _ZN10SchedAsyncC2Ev @60
    _ZN10SchedAsyncD0Ev @61
    _ZN10SchedAsyncD1Ev @62
    _ZN10SchedAsyncD2Ev @63
    _ZN11InPortAsync10initializeEv @64
    _ZN11InPortAsync10sendCreditEii @65
    _ZN11InPortAsync11getFlitInfoEP10NoCFlitMsg @66
    _ZN11InPortAsync12handleGntMsgEP9NoCGntMsg @67
    _ZN11InPortAsync12handlePopMsgEP9NoCPopMsg @68
    _ZN11InPortAsync13handleMessageEPN7omnetpp8cMessageE @69
    _ZN11InPortAsync14measureQlengthEv @70
    _ZN11InPortAsync15handleInFlitMsgEP10NoCFlitMsg @71
    _ZN11InPortAsync16handleCalcOPRespEP10NoCFlitMsg @72
    _ZN11InPortAsync6finishEv @73
    _ZN11InPortAsync7sendReqEP10NoCFlitMsg @74
    _ZN11InPortAsync8sendFlitEP10NoCFlitMsg @75
    _ZN11InPortAsyncC2Ev @76
    _ZN11InPortAsyncD0Ev @77
    _ZN11InPortAsyncD1Ev @78
    _ZN11InPortAsyncD2Ev @79
    _ZN12NoCCreditMsg12parsimUnpackEPN7omnetpp11cCommBufferE @80
    _ZN12NoCCreditMsg4copyERKS_ @81
    _ZN12NoCCreditMsg5setVCEi @82
    _ZN12NoCCreditMsg7setMsgsEi @83
    _ZN12NoCCreditMsg8setFlitsEi @84
    _ZN12NoCCreditMsgC1EPKcs @85
    _ZN12NoCCreditMsgC1ERKS_ @86
    _ZN12NoCCreditMsgC2EPKcs @87
    _ZN12NoCCreditMsgC2ERKS_ @88
    _ZN12NoCCreditMsgD0Ev @89
    _ZN12NoCCreditMsgD1Ev @90
    _ZN12NoCCreditMsgD2Ev @91
    _ZN12NoCCreditMsgaSERKS_ @92
    _ZN14TaskDescriptorC2EiiN7omnetpp7SimTimeEi @93
    _ZN14inPortFlitInfoD0Ev @94
    _ZN16PowerTraceWriter13recordPEEventEi14PowerEventTypeN7omnetpp7SimTimeEd @95
    _ZN16PowerTraceWriter17flushHotSpotTraceEiiN7omnetpp7SimTimeERKNSt3__16vectorIdNS2_9allocatorIdEEEES8_ @96
    _ZN16PowerTraceWriter17recordRouterEventEiiPKclN7omnetpp7SimTimeE @97
    _ZN16PowerTraceWriter4openEPKcS1_ @98
    _ZN16PowerTraceWriter5closeEv @99
    _ZN16PowerTraceWriterC2Ev @100
    _ZN17TaskMsgDescriptorC1Ev @101
    _ZN17TaskMsgDescriptorC2Ev @102
    _ZN17TaskMsgDescriptorD0Ev @103
    _ZN17TaskMsgDescriptorD1Ev @104
    _ZN17TaskMsgDescriptorD2Ev @105
    _ZN19NoCAckMsgDescriptorC1Ev @106
    _ZN19NoCAckMsgDescriptorC2Ev @107
    _ZN19NoCAckMsgDescriptorD0Ev @108
    _ZN19NoCAckMsgDescriptorD1Ev @109
    _ZN19NoCAckMsgDescriptorD2Ev @110
    _ZN19NoCGntMsgDescriptorC1Ev @111
    _ZN19NoCGntMsgDescriptorC2Ev @112
    _ZN19NoCGntMsgDescriptorD0Ev @113
    _ZN19NoCGntMsgDescriptorD1Ev @114
    _ZN19NoCGntMsgDescriptorD2Ev @115
    _ZN19NoCPopMsgDescriptorC1Ev @116
    _ZN19NoCPopMsgDescriptorC2Ev @117
    _ZN19NoCPopMsgDescriptorD0Ev @118
    _ZN19NoCPopMsgDescriptorD1Ev @119
    _ZN19NoCPopMsgDescriptorD2Ev @120
    _ZN19NoCReqMsgDescriptorC1Ev @121
    _ZN19NoCReqMsgDescriptorC2Ev @122
    _ZN19NoCReqMsgDescriptorD0Ev @123
    _ZN19NoCReqMsgDescriptorD1Ev @124
    _ZN19NoCReqMsgDescriptorD2Ev @125
    _ZN20NoCFlitMsgDescriptorC1Ev @126
    _ZN20NoCFlitMsgDescriptorC2Ev @127
    _ZN20NoCFlitMsgDescriptorD0Ev @128
    _ZN20NoCFlitMsgDescriptorD1Ev @129
    _ZN20NoCFlitMsgDescriptorD2Ev @130
    _ZN21InfiniteBWMultiVCSink10initializeEv @131
    _ZN21InfiniteBWMultiVCSink10sendCreditEii @132
    _ZN21InfiniteBWMultiVCSink13handleMessageEPN7omnetpp8cMessageE @133
    _ZN21InfiniteBWMultiVCSink6finishEv @134
    _ZN21InfiniteBWMultiVCSinkC2Ev @135
    _ZN21InfiniteBWMultiVCSinkD0Ev @136
    _ZN21InfiniteBWMultiVCSinkD2Ev @137
    _ZN22NoCCreditMsgDescriptorC1Ev @138
    _ZN22NoCCreditMsgDescriptorC2Ev @139
    _ZN22NoCCreditMsgDescriptorD0Ev @140
    _ZN22NoCCreditMsgDescriptorD1Ev @141
    _ZN22NoCCreditMsgDescriptorD2Ev @142
    _ZN27InfiniteBWMultiVCSinkperSrc10initializeEv @143
    _ZN27InfiniteBWMultiVCSinkperSrc10sendCreditEii @144
    _ZN27InfiniteBWMultiVCSinkperSrc13handleMessageEPN7omnetpp8cMessageE @145
    _ZN27InfiniteBWMultiVCSinkperSrc6finishEv @146
    _ZN27InfiniteBWMultiVCSinkperSrcC2Ev @147
    _ZN27InfiniteBWMultiVCSinkperSrcD0Ev @148
    _ZN27InfiniteBWMultiVCSinkperSrcD2Ev @149
    _ZN6TaskPE10initializeEv @150
    _ZN6TaskPE11samplePowerEv @151
    _ZN6TaskPE11updatePowerEd @152
    _ZN6TaskPE12sendTaskDataEP14TaskDescriptor @153
    _ZN6TaskPE13handleMessageEPN7omnetpp8cMessageE @154
    _ZN6TaskPE13loadTaskGraphEv @155
    _ZN6TaskPE13sendFlitFromQEv @156
    _ZN6TaskPE16scheduleNextTaskEv @157
    _ZN6TaskPE16startComputationEP14TaskDescriptor @158
    _ZN6TaskPE17handleDataArrivalEP7TaskMsg @159
    _ZN6TaskPE19completeComputationEv @160
    _ZN6TaskPE21loadCNNInferenceTasksEv @161
    _ZN6TaskPE23loadGraphTraversalTasksEv @162
    _ZN6TaskPE23loadMatrixMultiplyTasksEv @163
    _ZN6TaskPE6finishEv @164
    _ZN6TaskPEC2Ev @165
    _ZN6TaskPED0Ev @166
    _ZN6TaskPED1Ev @167
    _ZN6TaskPED2Ev @168
    _ZN7TaskMsg11setDataSizeEi @169
    _ZN7TaskMsg12parsimUnpackEPN7omnetpp11cCommBufferE @170
    _ZN7TaskMsg13setConsumerPEEi @171
    _ZN7TaskMsg13setProducerPEEi @172
    _ZN7TaskMsg14setComputeTimeEN7omnetpp7SimTimeE @173
    _ZN7TaskMsg17setProducerTaskIdEi @174
    _ZN7TaskMsg4copyERKS_ @175
    _ZN7TaskMsg9setTaskIdEi @176
    _ZN7TaskMsgC1EPKcs @177
    _ZN7TaskMsgC1ERKS_ @178
    _ZN7TaskMsgC2EPKcs @179
    _ZN7TaskMsgC2ERKS_ @180
    _ZN7TaskMsgD0Ev @181
    _ZN7TaskMsgD1Ev @182
    _ZN7TaskMsgD2Ev @183
    _ZN7TaskMsgaSERKS_ @184
    _ZN7omnetpp10cComponent10initializeEi @185
    _ZN7omnetpp10cComponent12recordScalarEPKcNS_7SimTimeES2_ @186
    _ZN7omnetpp10cComponent4emitEiPKNS_7cObjectEPS1_ @187
    _ZN7omnetpp10cComponent4emitEicPNS_7cObjectE @188
    _ZN7omnetpp10cComponent4emitEiePNS_7cObjectE @189
    _ZN7omnetpp10cComponent4emitEifPNS_7cObjectE @190
    _ZN7omnetpp10cComponent4emitEihPNS_7cObjectE @191
    _ZN7omnetpp10cComponent4emitEiiPNS_7cObjectE @192
    _ZN7omnetpp10cComponent4emitEijPNS_7cObjectE @193
    _ZN7omnetpp10cComponent4emitEilPNS_7cObjectE @194
    _ZN7omnetpp10cComponent4emitEimPNS_7cObjectE @195
    _ZN7omnetpp10cComponent4emitEisPNS_7cObjectE @196
    _ZN7omnetpp10cComponent4emitEitPNS_7cObjectE @197
    _ZN7omnetpp10cComponent4emitEixPNS_7cObjectE @198
    _ZN7omnetpp10cComponent4emitEiyPNS_7cObjectE @199
    _ZN7omnetpp10cComponent9setRNGMapEsPi @200
    _ZN7omnetpp10cExceptionD2Ev @201
    _ZN7omnetpp10cWatchBase6assignEPKc @202
    _ZN7omnetpp10fromAnyPtrI10NoCFlitMsgEEPT_NS_7any_ptrE @203
    _ZN7omnetpp10fromAnyPtrI12NoCCreditMsgEEPT_NS_7any_ptrE @204
    _ZN7omnetpp10fromAnyPtrI7TaskMsgEEPT_NS_7any_ptrE @205
    _ZN7omnetpp10fromAnyPtrI9NoCAckMsgEEPT_NS_7any_ptrE @206
    _ZN7omnetpp10fromAnyPtrI9NoCGntMsgEEPT_NS_7any_ptrE @207
    _ZN7omnetpp10fromAnyPtrI9NoCPopMsgEEPT_NS_7any_ptrE @208
    _ZN7omnetpp10fromAnyPtrI9NoCReqMsgEEPT_NS_7any_ptrE @209
    _ZN7omnetpp12cNamedObject14getNamePoolingEv @210
    _ZN7omnetpp13cSimpleModule10sendDirectEPNS_8cMessageENS_7SimTimeES3_PNS_5cGateE @211
    _ZN7omnetpp13cSimpleModule10sendDirectEPNS_8cMessageENS_7SimTimeES3_PNS_7cModuleEPKci @212
    _ZN7omnetpp13cSimpleModule10sendDirectEPNS_8cMessageENS_7SimTimeES3_PNS_7cModuleEi @213
    _ZN7omnetpp13cSimpleModule10sendDirectEPNS_8cMessageEPNS_5cGateE @214
    _ZN7omnetpp13cSimpleModule10sendDirectEPNS_8cMessageEPNS_7cModuleEPKci @215
    _ZN7omnetpp13cSimpleModule10sendDirectEPNS_8cMessageEPNS_7cModuleEi @216
    _ZN7omnetpp13cSimpleModule10sendDirectEPNS_8cMessageERKNS_11SendOptionsEPNS_7cModuleEPKci @217
    _ZN7omnetpp13cSimpleModule10sendDirectEPNS_8cMessageERKNS_11SendOptionsEPNS_7cModuleEi @218
    _ZN7omnetpp13cSimpleModule11sendDelayedEPNS_8cMessageENS_7SimTimeEPKci @219
    _ZN7omnetpp13cSimpleModule11sendDelayedEPNS_8cMessageENS_7SimTimeEPNS_5cGateE @220
    _ZN7omnetpp13cSimpleModule11sendDelayedEPNS_8cMessageENS_7SimTimeEi @221
    _ZN7omnetpp13cSimpleModule4sendEPNS_8cMessageEPKci @222
    _ZN7omnetpp13cSimpleModule4sendEPNS_8cMessageEPNS_5cGateE @223
    _ZN7omnetpp13cSimpleModule4sendEPNS_8cMessageERKNS_11SendOptionsEPKci @224
    _ZN7omnetpp13cSimpleModule4sendEPNS_8cMessageERKNS_11SendOptionsEi @225
    _ZN7omnetpp13cSimpleModule4sendEPNS_8cMessageEi @226
    _ZN7omnetpp14check_and_castIP10NoCFlitMsgNS_7cObjectEEET_PT0_ @227
    _ZN7omnetpp14check_and_castIP12NoCCreditMsgNS_7cObjectEEET_PT0_ @228
    _ZN7omnetpp14check_and_castIP7TaskMsgNS_7cObjectEEET_PT0_ @229
    _ZN7omnetpp14check_and_castIP9NoCAckMsgNS_7cObjectEEET_PT0_ @230
    _ZN7omnetpp14check_and_castIP9NoCGntMsgNS_7cObjectEEET_PT0_ @231
    _ZN7omnetpp14check_and_castIP9NoCPopMsgNS_7cObjectEEET_PT0_ @232
    _ZN7omnetpp14check_and_castIP9NoCReqMsgNS_7cObjectEEET_PT0_ @233
    _ZN7omnetpp14check_and_castIPNS_16cDatarateChannelENS_8cChannelEEET_PT0_ @234
    _ZN7omnetpp17cStdVectorWatcherIP9NoCReqMsgEC2EPKcRNSt3__16vectorIS2_NS6_9allocatorIS2_EEEE @235
    _ZN7omnetpp17cStdVectorWatcherIP9NoCReqMsgED0Ev @236
    _ZN7omnetpp17cStdVectorWatcherIP9NoCReqMsgED2Ev @237
    _ZN7omnetpp17cStdVectorWatcherIiEC2EPKcRNSt3__16vectorIiNS4_9allocatorIiEEEE @238
    _ZN7omnetpp17cStdVectorWatcherIiED0Ev @239
    _ZN7omnetpp17cStdVectorWatcherIiED2Ev @240
    _ZN7omnetpp22check_and_cast_failureIP10NoCFlitMsgNS_7cObjectEEEvPT0_T_ @241
    _ZN7omnetpp22check_and_cast_failureIP12NoCCreditMsgNS_7cObjectEEEvPT0_T_ @242
    _ZN7omnetpp22check_and_cast_failureIP12NoCCreditMsgNS_8cMessageEEEvPT0_T_ @243
    _ZN7omnetpp22check_and_cast_failureIP7TaskMsgNS_7cObjectEEEvPT0_T_ @244
    _ZN7omnetpp22check_and_cast_failureIP9NoCAckMsgNS_7cObjectEEEvPT0_T_ @245
    _ZN7omnetpp22check_and_cast_failureIP9NoCGntMsgNS_7cObjectEEEvPT0_T_ @246
    _ZN7omnetpp22check_and_cast_failureIP9NoCPopMsgNS_7cObjectEEEvPT0_T_ @247
    _ZN7omnetpp22check_and_cast_failureIP9NoCReqMsgNS_7cObjectEEEvPT0_T_ @248
    _ZN7omnetpp22check_and_cast_failureIPNS_16cDatarateChannelENS_8cChannelEEEvPT0_T_ @249
    _ZN7omnetpp23cGenericAssignableWatchIdE6assignEPKc @250
    _ZN7omnetpp23cGenericAssignableWatchIdED0Ev @251
    _ZN7omnetpp23cGenericAssignableWatchIiE6assignEPKc @252
    _ZN7omnetpp23cGenericAssignableWatchIiED0Ev @253
    _ZN7omnetpp23cNoncopyableOwnedObject12parsimUnpackEPNS_11cCommBufferE @254
    _ZN7omnetpp23cNoncopyableOwnedObjectD2Ev @255
    _ZN7omnetpp7cModule27setBuiltinAnimationsAllowedEb @256
    _ZN7omnetpp7cPacket11setBitErrorEb @257
    _ZN7omnetpp8cMessage10getParListEv @258
    _ZN7omnetpp8cMessage12removeObjectEPKc @259
    _ZN7omnetpp8cMessage12removeObjectEPNS_7cObjectE @260
    _ZN7omnetpp8cMessage6addParEPKc @261
    _ZN7omnetpp8cMessage6addParEPNS_7cMsgParE @262
    _ZN7omnetpp8cMessage9addObjectEPNS_7cObjectE @263
    _ZN7omnetpp8cMessage9getObjectEPKc @264
    _ZN7omnetpp8cMessage9hasObjectEPKc @265
    _ZN7omnetpplsERNSt3__113basic_ostreamIcNS0_11char_traitsIcEEEERKNS_7SimTimeE @266
    _ZN7omnetppmiERKNS_7SimTimeES2_ @267
    _ZN8XYOPCalc10initializeEv @268
    _ZN8XYOPCalc10rowColByIDEiRiS0_ @269
    _ZN8XYOPCalc12isCoreModuleEPN7omnetpp7cModuleE @270
    _ZN8XYOPCalc12isPortModuleEPN7omnetpp7cModuleE @271
    _ZN8XYOPCalc13handleMessageEPN7omnetpp8cMessageE @272
    _ZN8XYOPCalc15handlePacketMsgEP10NoCFlitMsg @273
    _ZN8XYOPCalc17getPortRemoteCoreEPN7omnetpp7cModuleE @274
    _ZN8XYOPCalc17getPortRemotePortEPN7omnetpp7cModuleE @275
    _ZN8XYOPCalc19analyzeMeshTopologyEv @276
    _ZN8XYOPCalc29getIdxOfSwPortConnectedToPortEPN7omnetpp7cModuleE @277
    _ZN8XYOPCalcD0Ev @278
    _ZN9FLUVCCalc10initializeEv @279
    _ZN9FLUVCCalc13handleMessageEPN7omnetpp8cMessageE @280
    _ZN9FLUVCCalc14getSchedOnPortEi @281
    _ZN9FLUVCCalc15handlePacketMsgEP10NoCFlitMsg @282
    _ZN9FLUVCCalcD0Ev @283
    _ZN9FLUVCCalcD2Ev @284
    _ZN9NoCAckMsg12parsimUnpackEPN7omnetpp11cCommBufferE @285
    _ZN9NoCAckMsg13setOutPortNumEi @286
    _ZN9NoCAckMsg4copyERKS_ @287
    _ZN9NoCAckMsg5setOKEb @288
    _ZN9NoCAckMsg7setInVCEi @289
    _ZN9NoCAckMsg8setOutVCEi @290
    _ZN9NoCAckMsgC1EPKcs @291
    _ZN9NoCAckMsgC1ERKS_ @292
    _ZN9NoCAckMsgC2EPKcs @293
    _ZN9NoCAckMsgC2ERKS_ @294
    _ZN9NoCAckMsgD0Ev @295
    _ZN9NoCAckMsgD1Ev @296
    _ZN9NoCAckMsgD2Ev @297
    _ZN9NoCAckMsgaSERKS_ @298
    _ZN9NoCGntMsg12parsimUnpackEPN7omnetpp11cCommBufferE @299
    _ZN9NoCGntMsg13setOutPortNumEi @300
    _ZN9NoCGntMsg4copyERKS_ @301
    _ZN9NoCGntMsg7setInVCEi @302
    _ZN9NoCGntMsg8setOutVCEi @303
    _ZN9NoCGntMsgC1EPKcs @304
    _ZN9NoCGntMsgC1ERKS_ @305
    _ZN9NoCGntMsgC2EPKcs @306
    _ZN9NoCGntMsgC2ERKS_ @307
    _ZN9NoCGntMsgD0Ev @308
    _ZN9NoCGntMsgD1Ev @309
    _ZN9NoCGntMsgD2Ev @310
    _ZN9NoCGntMsgaSERKS_ @311
    _ZN9NoCPopMsg12parsimUnpackEPN7omnetpp11cCommBufferE @312
    _ZN9NoCPopMsg13setOutPortNumEi @313
    _ZN9NoCPopMsg4copyERKS_ @314
    _ZN9NoCPopMsg5setVCEi @315
    _ZN9NoCPopMsgC1EPKcs @316
    _ZN9NoCPopMsgC1ERKS_ @317
    _ZN9NoCPopMsgC2EPKcs @318
    _ZN9NoCPopMsgC2ERKS_ @319
    _ZN9NoCPopMsgD0Ev @320
    _ZN9NoCPopMsgD1Ev @321
    _ZN9NoCPopMsgD2Ev @322
    _ZN9NoCPopMsgaSERKS_ @323
    _ZN9NoCReqMsg11setNumAckedEi @324
    _ZN9NoCReqMsg11setNumFlitsEi @325
    _ZN9NoCReqMsg12parsimUnpackEPN7omnetpp11cCommBufferE @326
    _ZN9NoCReqMsg13setNumGrantedEi @327
    _ZN9NoCReqMsg13setOutPortNumEi @328
    _ZN9NoCReqMsg4copyERKS_ @329
    _ZN9NoCReqMsg7setInVCEi @330
    _ZN9NoCReqMsg8setOutVCEi @331
    _ZN9NoCReqMsg8setPktIdEi @332
    _ZN9NoCReqMsgC1EPKcs @333
    _ZN9NoCReqMsgC1ERKS_ @334
    _ZN9NoCReqMsgC2EPKcs @335
    _ZN9NoCReqMsgC2ERKS_ @336
    _ZN9NoCReqMsgD0Ev @337
    _ZN9NoCReqMsgD1Ev @338
    _ZN9NoCReqMsgD2Ev @339
    _ZN9NoCReqMsgaSERKS_ @340
    _ZN9SchedSync10initializeEv @341
    _ZN9SchedSync11incrVCUsageEi @342
    _ZN9SchedSync12handleAckMsgEP9NoCAckMsg @343
    _ZN9SchedSync12handlePopMsgEv @344
    _ZN9SchedSync12handleReqMsgEP9NoCReqMsg @345
    _ZN9SchedSync13handleFlitMsgEP10NoCFlitMsg @346
    _ZN9SchedSync13handleMessageEPN7omnetpp8cMessageE @347
    _ZN9SchedSync15handleCreditMsgEP12NoCCreditMsg @348
    _ZN9SchedSync6finishEv @349
    _ZN9SchedSync9arbitrateEv @350
    _ZN9SchedSyncC2Ev @351
    _ZN9SchedSyncD0Ev @352
    _ZN9SchedSyncD1Ev @353
    _ZN9SchedSyncD2Ev @354
    _ZNK10NoCFlitMsg10getFlitIdxEv @355
    _ZNK10NoCFlitMsg10parsimPackEPN7omnetpp11cCommBufferE @356
    _ZNK10NoCFlitMsg11getFirstNetEv @357
    _ZNK10NoCFlitMsg13getInjectTimeEv @358
    _ZNK10NoCFlitMsg15getFirstNetTimeEv @359
    _ZNK10NoCFlitMsg3dupEv @360
    _ZNK10NoCFlitMsg5getSLEv @361
    _ZNK10NoCFlitMsg5getVCEv @362
    _ZNK10NoCFlitMsg7getTypeEv @363
    _ZNK10NoCFlitMsg8getDstIdEv @364
    _ZNK10NoCFlitMsg8getFlitsEv @365
    _ZNK10NoCFlitMsg8getPktIdEv @366
    _ZNK10NoCFlitMsg8getSrcIdEv @367
    _ZNK10SchedAsync10getCreditsEv @368
    _ZNK10SchedAsync10getVCUsageEv @369
    _ZNK12NoCCreditMsg10parsimPackEPN7omnetpp11cCommBufferE @370
    _ZNK12NoCCreditMsg3dupEv @371
    _ZNK12NoCCreditMsg5getVCEv @372
    _ZNK12NoCCreditMsg7getMsgsEv @373
    _ZNK12NoCCreditMsg8getFlitsEv @374
    _ZNK17TaskMsgDescriptor11doesSupportEPN7omnetpp7cObjectE @375
    _ZNK17TaskMsgDescriptor11getPropertyEPKc @376
    _ZNK17TaskMsgDescriptor12getFieldNameEi @377
    _ZNK17TaskMsgDescriptor13getFieldCountEv @378
    _ZNK17TaskMsgDescriptor13getFieldValueEN7omnetpp7any_ptrEii @379
    _ZNK17TaskMsgDescriptor13setFieldValueEN7omnetpp7any_ptrEiiRKNS0_6cValueE @380
    _ZNK17TaskMsgDescriptor16getFieldPropertyEiPKc @381
    _ZNK17TaskMsgDescriptor16getPropertyNamesEv @382
    _ZNK17TaskMsgDescriptor17getFieldArraySizeEN7omnetpp7any_ptrEi @383
    _ZNK17TaskMsgDescriptor17getFieldTypeFlagsEi @384
    _ZNK17TaskMsgDescriptor17setFieldArraySizeEN7omnetpp7any_ptrEii @385
    _ZNK17TaskMsgDescriptor18getFieldStructNameEi @386
    _ZNK17TaskMsgDescriptor18getFieldTypeStringEi @387
    _ZNK17TaskMsgDescriptor21getFieldPropertyNamesEi @388
    _ZNK17TaskMsgDescriptor21getFieldValueAsStringEN7omnetpp7any_ptrEii @389
    _ZNK17TaskMsgDescriptor21setFieldValueAsStringEN7omnetpp7any_ptrEiiPKc @390
    _ZNK17TaskMsgDescriptor25getFieldDynamicTypeStringEN7omnetpp7any_ptrEii @391
    _ZNK17TaskMsgDescriptor26getFieldStructValuePointerEN7omnetpp7any_ptrEii @392
    _ZNK17TaskMsgDescriptor26setFieldStructValuePointerEN7omnetpp7any_ptrEiiS1_ @393
    _ZNK17TaskMsgDescriptor9findFieldEPKc @394
    _ZNK19NoCAckMsgDescriptor11doesSupportEPN7omnetpp7cObjectE @395
    _ZNK19NoCAckMsgDescriptor11getPropertyEPKc @396
    _ZNK19NoCAckMsgDescriptor12getFieldNameEi @397
    _ZNK19NoCAckMsgDescriptor13getFieldCountEv @398
    _ZNK19NoCAckMsgDescriptor13getFieldValueEN7omnetpp7any_ptrEii @399
    _ZNK19NoCAckMsgDescriptor13setFieldValueEN7omnetpp7any_ptrEiiRKNS0_6cValueE @400
    _ZNK19NoCAckMsgDescriptor16getFieldPropertyEiPKc @401
    _ZNK19NoCAckMsgDescriptor16getPropertyNamesEv @402
    _ZNK19NoCAckMsgDescriptor17getFieldArraySizeEN7omnetpp7any_ptrEi @403
    _ZNK19NoCAckMsgDescriptor17getFieldTypeFlagsEi @404
    _ZNK19NoCAckMsgDescriptor17setFieldArraySizeEN7omnetpp7any_ptrEii @405
    _ZNK19NoCAckMsgDescriptor18getFieldStructNameEi @406
    _ZNK19NoCAckMsgDescriptor18getFieldTypeStringEi @407
    _ZNK19NoCAckMsgDescriptor21getFieldPropertyNamesEi @408
    _ZNK19NoCAckMsgDescriptor21getFieldValueAsStringEN7omnetpp7any_ptrEii @409
    _ZNK19NoCAckMsgDescriptor21setFieldValueAsStringEN7omnetpp7any_ptrEiiPKc @410
    _ZNK19NoCAckMsgDescriptor25getFieldDynamicTypeStringEN7omnetpp7any_ptrEii @411
    _ZNK19NoCAckMsgDescriptor26getFieldStructValuePointerEN7omnetpp7any_ptrEii @412
    _ZNK19NoCAckMsgDescriptor26setFieldStructValuePointerEN7omnetpp7any_ptrEiiS1_ @413
    _ZNK19NoCAckMsgDescriptor9findFieldEPKc @414
    _ZNK19NoCGntMsgDescriptor11doesSupportEPN7omnetpp7cObjectE @415
    _ZNK19NoCGntMsgDescriptor11getPropertyEPKc @416
    _ZNK19NoCGntMsgDescriptor12getFieldNameEi @417
    _ZNK19NoCGntMsgDescriptor13getFieldCountEv @418
    _ZNK19NoCGntMsgDescriptor13getFieldValueEN7omnetpp7any_ptrEii @419
    _ZNK19NoCGntMsgDescriptor13setFieldValueEN7omnetpp7any_ptrEiiRKNS0_6cValueE @420
    _ZNK19NoCGntMsgDescriptor16getFieldPropertyEiPKc @421
    _ZNK19NoCGntMsgDescriptor16getPropertyNamesEv @422
    _ZNK19NoCGntMsgDescriptor17getFieldArraySizeEN7omnetpp7any_ptrEi @423
    _ZNK19NoCGntMsgDescriptor17getFieldTypeFlagsEi @424
    _ZNK19NoCGntMsgDescriptor17setFieldArraySizeEN7omnetpp7any_ptrEii @425
    _ZNK19NoCGntMsgDescriptor18getFieldStructNameEi @426
    _ZNK19NoCGntMsgDescriptor18getFieldTypeStringEi @427
    _ZNK19NoCGntMsgDescriptor21getFieldPropertyNamesEi @428
    _ZNK19NoCGntMsgDescriptor21getFieldValueAsStringEN7omnetpp7any_ptrEii @429
    _ZNK19NoCGntMsgDescriptor21setFieldValueAsStringEN7omnetpp7any_ptrEiiPKc @430
    _ZNK19NoCGntMsgDescriptor25getFieldDynamicTypeStringEN7omnetpp7any_ptrEii @431
    _ZNK19NoCGntMsgDescriptor26getFieldStructValuePointerEN7omnetpp7any_ptrEii @432
    _ZNK19NoCGntMsgDescriptor26setFieldStructValuePointerEN7omnetpp7any_ptrEiiS1_ @433
    _ZNK19NoCGntMsgDescriptor9findFieldEPKc @434
    _ZNK19NoCPopMsgDescriptor11doesSupportEPN7omnetpp7cObjectE @435
    _ZNK19NoCPopMsgDescriptor11getPropertyEPKc @436
    _ZNK19NoCPopMsgDescriptor12getFieldNameEi @437
    _ZNK19NoCPopMsgDescriptor13getFieldCountEv @438
    _ZNK19NoCPopMsgDescriptor13getFieldValueEN7omnetpp7any_ptrEii @439
    _ZNK19NoCPopMsgDescriptor13setFieldValueEN7omnetpp7any_ptrEiiRKNS0_6cValueE @440
    _ZNK19NoCPopMsgDescriptor16getFieldPropertyEiPKc @441
    _ZNK19NoCPopMsgDescriptor16getPropertyNamesEv @442
    _ZNK19NoCPopMsgDescriptor17getFieldArraySizeEN7omnetpp7any_ptrEi @443
    _ZNK19NoCPopMsgDescriptor17getFieldTypeFlagsEi @444
    _ZNK19NoCPopMsgDescriptor17setFieldArraySizeEN7omnetpp7any_ptrEii @445
    _ZNK19NoCPopMsgDescriptor18getFieldStructNameEi @446
    _ZNK19NoCPopMsgDescriptor18getFieldTypeStringEi @447
    _ZNK19NoCPopMsgDescriptor21getFieldPropertyNamesEi @448
    _ZNK19NoCPopMsgDescriptor21getFieldValueAsStringEN7omnetpp7any_ptrEii @449
    _ZNK19NoCPopMsgDescriptor21setFieldValueAsStringEN7omnetpp7any_ptrEiiPKc @450
    _ZNK19NoCPopMsgDescriptor25getFieldDynamicTypeStringEN7omnetpp7any_ptrEii @451
    _ZNK19NoCPopMsgDescriptor26getFieldStructValuePointerEN7omnetpp7any_ptrEii @452
    _ZNK19NoCPopMsgDescriptor26setFieldStructValuePointerEN7omnetpp7any_ptrEiiS1_ @453
    _ZNK19NoCPopMsgDescriptor9findFieldEPKc @454
    _ZNK19NoCReqMsgDescriptor11doesSupportEPN7omnetpp7cObjectE @455
    _ZNK19NoCReqMsgDescriptor11getPropertyEPKc @456
    _ZNK19NoCReqMsgDescriptor12getFieldNameEi @457
    _ZNK19NoCReqMsgDescriptor13getFieldCountEv @458
    _ZNK19NoCReqMsgDescriptor13getFieldValueEN7omnetpp7any_ptrEii @459
    _ZNK19NoCReqMsgDescriptor13setFieldValueEN7omnetpp7any_ptrEiiRKNS0_6cValueE @460
    _ZNK19NoCReqMsgDescriptor16getFieldPropertyEiPKc @461
    _ZNK19NoCReqMsgDescriptor16getPropertyNamesEv @462
    _ZNK19NoCReqMsgDescriptor17getFieldArraySizeEN7omnetpp7any_ptrEi @463
    _ZNK19NoCReqMsgDescriptor17getFieldTypeFlagsEi @464
    _ZNK19NoCReqMsgDescriptor17setFieldArraySizeEN7omnetpp7any_ptrEii @465
    _ZNK19NoCReqMsgDescriptor18getFieldStructNameEi @466
    _ZNK19NoCReqMsgDescriptor18getFieldTypeStringEi @467
    _ZNK19NoCReqMsgDescriptor21getFieldPropertyNamesEi @468
    _ZNK19NoCReqMsgDescriptor21getFieldValueAsStringEN7omnetpp7any_ptrEii @469
    _ZNK19NoCReqMsgDescriptor21setFieldValueAsStringEN7omnetpp7any_ptrEiiPKc @470
    _ZNK19NoCReqMsgDescriptor25getFieldDynamicTypeStringEN7omnetpp7any_ptrEii @471
    _ZNK19NoCReqMsgDescriptor26getFieldStructValuePointerEN7omnetpp7any_ptrEii @472
    _ZNK19NoCReqMsgDescriptor26setFieldStructValuePointerEN7omnetpp7any_ptrEiiS1_ @473
    _ZNK19NoCReqMsgDescriptor9findFieldEPKc @474
    _ZNK20NoCFlitMsgDescriptor11doesSupportEPN7omnetpp7cObjectE @475
    _ZNK20NoCFlitMsgDescriptor11getPropertyEPKc @476
    _ZNK20NoCFlitMsgDescriptor12getFieldNameEi @477
    _ZNK20NoCFlitMsgDescriptor13getFieldCountEv @478
    _ZNK20NoCFlitMsgDescriptor13getFieldValueEN7omnetpp7any_ptrEii @479
    _ZNK20NoCFlitMsgDescriptor13setFieldValueEN7omnetpp7any_ptrEiiRKNS0_6cValueE @480
    _ZNK20NoCFlitMsgDescriptor16getFieldPropertyEiPKc @481
    _ZNK20NoCFlitMsgDescriptor16getPropertyNamesEv @482
    _ZNK20NoCFlitMsgDescriptor17getFieldArraySizeEN7omnetpp7any_ptrEi @483
    _ZNK20NoCFlitMsgDescriptor17getFieldTypeFlagsEi @484
    _ZNK20NoCFlitMsgDescriptor17setFieldArraySizeEN7omnetpp7any_ptrEii @485
    _ZNK20NoCFlitMsgDescriptor18getFieldStructNameEi @486
    _ZNK20NoCFlitMsgDescriptor18getFieldTypeStringEi @487
    _ZNK20NoCFlitMsgDescriptor21getFieldPropertyNamesEi @488
    _ZNK20NoCFlitMsgDescriptor21getFieldValueAsStringEN7omnetpp7any_ptrEii @489
    _ZNK20NoCFlitMsgDescriptor21setFieldValueAsStringEN7omnetpp7any_ptrEiiPKc @490
    _ZNK20NoCFlitMsgDescriptor25getFieldDynamicTypeStringEN7omnetpp7any_ptrEii @491
    _ZNK20NoCFlitMsgDescriptor26getFieldStructValuePointerEN7omnetpp7any_ptrEii @492
    _ZNK20NoCFlitMsgDescriptor26setFieldStructValuePointerEN7omnetpp7any_ptrEiiS1_ @493
    _ZNK20NoCFlitMsgDescriptor9findFieldEPKc @494
    _ZNK22NoCCreditMsgDescriptor11doesSupportEPN7omnetpp7cObjectE @495
    _ZNK22NoCCreditMsgDescriptor11getPropertyEPKc @496
    _ZNK22NoCCreditMsgDescriptor12getFieldNameEi @497
    _ZNK22NoCCreditMsgDescriptor13getFieldCountEv @498
    _ZNK22NoCCreditMsgDescriptor13getFieldValueEN7omnetpp7any_ptrEii @499
    _ZNK22NoCCreditMsgDescriptor13setFieldValueEN7omnetpp7any_ptrEiiRKNS0_6cValueE @500
    _ZNK22NoCCreditMsgDescriptor16getFieldPropertyEiPKc @501
    _ZNK22NoCCreditMsgDescriptor16getPropertyNamesEv @502
    _ZNK22NoCCreditMsgDescriptor17getFieldArraySizeEN7omnetpp7any_ptrEi @503
    _ZNK22NoCCreditMsgDescriptor17getFieldTypeFlagsEi @504
    _ZNK22NoCCreditMsgDescriptor17setFieldArraySizeEN7omnetpp7any_ptrEii @505
    _ZNK22NoCCreditMsgDescriptor18getFieldStructNameEi @506
    _ZNK22NoCCreditMsgDescriptor18getFieldTypeStringEi @507
    _ZNK22NoCCreditMsgDescriptor21getFieldPropertyNamesEi @508
    _ZNK22NoCCreditMsgDescriptor21getFieldValueAsStringEN7omnetpp7any_ptrEii @509
    _ZNK22NoCCreditMsgDescriptor21setFieldValueAsStringEN7omnetpp7any_ptrEiiPKc @510
    _ZNK22NoCCreditMsgDescriptor25getFieldDynamicTypeStringEN7omnetpp7any_ptrEii @511
    _ZNK22NoCCreditMsgDescriptor26getFieldStructValuePointerEN7omnetpp7any_ptrEii @512
    _ZNK22NoCCreditMsgDescriptor26setFieldStructValuePointerEN7omnetpp7any_ptrEiiS1_ @513
    _ZNK22NoCCreditMsgDescriptor9findFieldEPKc @514
    _ZNK6TaskPE14getUtilizationEv @515
    _ZNK6TaskPE17calculateNumFlitsEi @516
    _ZNK7TaskMsg10parsimPackEPN7omnetpp11cCommBufferE @517
    _ZNK7TaskMsg11getDataSizeEv @518
    _ZNK7TaskMsg13getConsumerPEEv @519
    _ZNK7TaskMsg13getProducerPEEv @520
    _ZNK7TaskMsg14getComputeTimeEv @521
    _ZNK7TaskMsg17getProducerTaskIdEv @522
    _ZNK7TaskMsg3dupEv @523
    _ZNK7TaskMsg9getTaskIdEv @524
    _ZNK7omnetpp10cComponent10chi_squareEji @525
    _ZNK7omnetpp10cComponent10intuniformEiii @526
    _ZNK7omnetpp10cComponent11exponentialENS_7SimTimeEi @527
    _ZNK7omnetpp10cComponent11exponentialEdi @528
    _ZNK7omnetpp10cComponent11negbinomialEidi @529
    _ZNK7omnetpp10cComponent11truncnormalENS_7SimTimeES1_i @530
    _ZNK7omnetpp10cComponent11truncnormalEddi @531
    _ZNK7omnetpp10cComponent12getNumParamsEv @532
    _ZNK7omnetpp10cComponent13numInitStagesEv @533
    _ZNK7omnetpp10cComponent14getDisplayNameEv @534
    _ZNK7omnetpp10cComponent14intuniformexclEiii @535
    _ZNK7omnetpp10cComponent14pareto_shiftedEdddi @536
    _ZNK7omnetpp10cComponent4betaEddi @537
    _ZNK7omnetpp10cComponent6cauchyEddi @538
    _ZNK7omnetpp10cComponent6normalENS_7SimTimeES1_i @539
    _ZNK7omnetpp10cComponent6normalEddi @540
    _ZNK7omnetpp10cComponent6triangEdddi @541
    _ZNK7omnetpp10cComponent7dblrandEi @542
    _ZNK7omnetpp10cComponent7gamma_dEddi @543
    _ZNK7omnetpp10cComponent7intrandEji @544
    _ZNK7omnetpp10cComponent7poissonEdi @545
    _ZNK7omnetpp10cComponent7uniformENS_7SimTimeES1_i @546
    _ZNK7omnetpp10cComponent7uniformEddi @547
    _ZNK7omnetpp10cComponent7weibullEddi @548
    _ZNK7omnetpp10cComponent8binomialEidi @549
    _ZNK7omnetpp10cComponent8erlang_kEjdi @550
    _ZNK7omnetpp10cComponent9bernoulliEdi @551
    _ZNK7omnetpp10cComponent9geometricEdi @552
    _ZNK7omnetpp10cComponent9lognormalEddi @553
    _ZNK7omnetpp10cComponent9student_tEji @554
    _ZNK7omnetpp10cSoftOwner11isSoftOwnerEv @555
    _ZNK7omnetpp12cNamedObject7getNameEv @556
    _ZNK7omnetpp12cOwnedObject13isOwnedObjectEv @557
    _ZNK7omnetpp12cOwnedObject8getOwnerEv @558
    _ZNK7omnetpp17cStdVectorWatcherIP9NoCReqMsgE12getClassNameEv @559
    _ZNK7omnetpp17cStdVectorWatcherIP9NoCReqMsgE15getElemTypeNameEv @560
    _ZNK7omnetpp17cStdVectorWatcherIP9NoCReqMsgE2atEi @561
    _ZNK7omnetpp17cStdVectorWatcherIP9NoCReqMsgE4sizeEv @562
    _ZNK7omnetpp17cStdVectorWatcherIiE12getClassNameEv @563
    _ZNK7omnetpp17cStdVectorWatcherIiE15getElemTypeNameEv @564
    _ZNK7omnetpp17cStdVectorWatcherIiE2atEi @565
    _ZNK7omnetpp17cStdVectorWatcherIiE4sizeEv @566
    _ZNK7omnetpp21cStdVectorWatcherBase18supportsAssignmentEv @567
    _ZNK7omnetpp23cGenericAssignableWatchIdE12getClassNameEv @568
    _ZNK7omnetpp23cGenericAssignableWatchIdE18supportsAssignmentEv @569
    _ZNK7omnetpp23cGenericAssignableWatchIdE3strEv @570
    _ZNK7omnetpp23cGenericAssignableWatchIiE12getClassNameEv @571
    _ZNK7omnetpp23cGenericAssignableWatchIiE18supportsAssignmentEv @572
    _ZNK7omnetpp23cGenericAssignableWatchIiE3strEv @573
    _ZNK7omnetpp23cNoncopyableOwnedObject10parsimPackEPNS_11cCommBufferE @574
    _ZNK7omnetpp4cParcviEv @575
    _ZNK7omnetpp7cModule13isPlaceholderEv @576
    _ZNK7omnetpp7cModule15getParentModuleEv @577
    _ZNK7omnetpp7cModule16getComponentKindEv @578
    _ZNK7omnetpp7cModule27getBuiltinAnimationsAllowedEv @579
    _ZNK7omnetpp7cObject11getFullNameEv @580
    _ZNK7omnetpp7cObject11isSoftOwnerEv @581
    _ZNK7omnetpp7cObject13isOwnedObjectEv @582
    _ZNK7omnetpp7cObject7getNameEv @583
    _ZNK7omnetpp7cObject8getOwnerEv @584
    _ZNK7omnetpp7cPacket11hasBitErrorEv @585
    _ZNK7omnetpp7cPacket12getBitLengthEv @586
    _ZNK7omnetpp7cPacket8isPacketEv @587
    _ZNK7omnetpp8cMessage12getSrcProcIdEv @588
    _ZNK7omnetpp8cMessage6hasParEPKc @589
    _ZNK7omnetpp8cMessage8isPacketEv @590
    _ZNK7omnetpp8cMessage9isMessageEv @591
    _ZNK9NoCAckMsg10parsimPackEPN7omnetpp11cCommBufferE @592
    _ZNK9NoCAckMsg13getOutPortNumEv @593
    _ZNK9NoCAckMsg3dupEv @594
    _ZNK9NoCAckMsg5getOKEv @595
    _ZNK9NoCAckMsg7getInVCEv @596
    _ZNK9NoCAckMsg8getOutVCEv @597
    _ZNK9NoCGntMsg10parsimPackEPN7omnetpp11cCommBufferE @598
    _ZNK9NoCGntMsg13getOutPortNumEv @599
    _ZNK9NoCGntMsg3dupEv @600
    _ZNK9NoCGntMsg7getInVCEv @601
    _ZNK9NoCGntMsg8getOutVCEv @602
    _ZNK9NoCPopMsg10parsimPackEPN7omnetpp11cCommBufferE @603
    _ZNK9NoCPopMsg13getOutPortNumEv @604
    _ZNK9NoCPopMsg3dupEv @605
    _ZNK9NoCPopMsg5getVCEv @606
    _ZNK9NoCReqMsg10parsimPackEPN7omnetpp11cCommBufferE @607
    _ZNK9NoCReqMsg11getNumAckedEv @608
    _ZNK9NoCReqMsg11getNumFlitsEv @609
    _ZNK9NoCReqMsg13getNumGrantedEv @610
    _ZNK9NoCReqMsg13getOutPortNumEv @611
    _ZNK9NoCReqMsg3dupEv @612
    _ZNK9NoCReqMsg7getInVCEv @613
    _ZNK9NoCReqMsg8getOutVCEv @614
    _ZNK9NoCReqMsg8getPktIdEv @615
    _ZNK9SchedSync10getCreditsEv @616
    _ZNK9SchedSync10getVCUsageEv @617
    _ZNKSt3__115basic_stringbufIcNS_11char_traitsIcEENS_9allocatorIcEEE3strEv @618
    _ZNSt12length_errorC2B8ne200100EPKc @619
    _ZNSt3__110unique_ptrINS_11__tree_nodeINS_12__value_typeIiN7omnetpp7cStdDevEEEPvEENS_22__tree_node_destructorINS_9allocatorIS7_EEEEED2B8ne200100Ev @620
    _ZNSt3__112basic_stringIcNS_11char_traitsIcEENS_9allocatorIcEEE20__throw_length_errorB8ne200100Ev @621
    _ZNSt3__113basic_filebufIcNS_11char_traitsIcEEE4syncEv @622
    _ZNSt3__113basic_filebufIcNS_11char_traitsIcEEE5imbueERKNS_6localeE @623
    _ZNSt3__113basic_filebufIcNS_11char_traitsIcEEE6setbufEPcx @624
    _ZNSt3__113basic_filebufIcNS_11char_traitsIcEEE7seekoffExNS_8ios_base7seekdirEj @625
    _ZNSt3__113basic_filebufIcNS_11char_traitsIcEEE7seekposENS_4fposI9_MbstatetEEj @626
    _ZNSt3__113basic_filebufIcNS_11char_traitsIcEEE8overflowEi @627
    _ZNSt3__113basic_filebufIcNS_11char_traitsIcEEE9pbackfailEi @628
    _ZNSt3__113basic_filebufIcNS_11char_traitsIcEEE9underflowEv @629
    _ZNSt3__113basic_filebufIcNS_11char_traitsIcEEEC2Ev @630
    _ZNSt3__113basic_filebufIcNS_11char_traitsIcEEED0Ev @631
    _ZNSt3__113basic_filebufIcNS_11char_traitsIcEEED2Ev @632
    _ZNSt3__113basic_ostreamIcNS_11char_traitsIcEEE6sentryD2Ev @633
    _ZNSt3__114__split_bufferIN7omnetpp6cQueueERNS_9allocatorIS2_EEED2Ev @634
    _ZNSt3__114__split_bufferIN7omnetpp7cStdDevERNS_9allocatorIS2_EEED2Ev @635
    _ZNSt3__114__split_bufferINS_4listIP9NoCReqMsgNS_9allocatorIS3_EEEERNS4_IS6_EEED2Ev @636
    _ZNSt3__114__split_bufferIPP14TaskDescriptorNS_9allocatorIS3_EEE12emplace_backIJRS3_EEEvDpOT_ @637
    _ZNSt3__114__split_bufferIPP14TaskDescriptorNS_9allocatorIS3_EEE12emplace_backIJS3_EEEvDpOT_ @638
    _ZNSt3__114__split_bufferIPP14TaskDescriptorNS_9allocatorIS3_EEE13emplace_frontIJS3_EEEvDpOT_ @639
    _ZNSt3__114__split_bufferIPP7TaskMsgNS_9allocatorIS3_EEE12emplace_backIJRS3_EEEvDpOT_ @640
    _ZNSt3__114__split_bufferIPP7TaskMsgNS_9allocatorIS3_EEE12emplace_backIJS3_EEEvDpOT_ @641
    _ZNSt3__114__split_bufferIPP7TaskMsgNS_9allocatorIS3_EEE13emplace_frontIJS3_EEEvDpOT_ @642
    _ZNSt3__114basic_ofstreamIcNS_11char_traitsIcEEED0Ev @643
    _ZNSt3__114basic_ofstreamIcNS_11char_traitsIcEEED1Ev @644
    _ZNSt3__115basic_stringbufIcNS_11char_traitsIcEENS_9allocatorIcEEE15__init_buf_ptrsB8ne200100Ev @645
    _ZNSt3__115basic_stringbufIcNS_11char_traitsIcEENS_9allocatorIcEEE7seekoffExNS_8ios_base7seekdirEj @646
    _ZNSt3__115basic_stringbufIcNS_11char_traitsIcEENS_9allocatorIcEEE7seekposENS_4fposI9_MbstatetEEj @647
    _ZNSt3__115basic_stringbufIcNS_11char_traitsIcEENS_9allocatorIcEEE8overflowEi @648
    _ZNSt3__115basic_stringbufIcNS_11char_traitsIcEENS_9allocatorIcEEE9pbackfailEi @649
    _ZNSt3__115basic_stringbufIcNS_11char_traitsIcEENS_9allocatorIcEEE9underflowEv @650
    _ZNSt3__115basic_stringbufIcNS_11char_traitsIcEENS_9allocatorIcEEED0Ev @651
    _ZNSt3__115basic_stringbufIcNS_11char_traitsIcEENS_9allocatorIcEEED2Ev @652
    _ZNSt3__116__pad_and_outputB8ne200100IcNS_11char_traitsIcEEEENS_19ostreambuf_iteratorIT_T0_EES6_PKS4_S8_S8_RNS_8ios_baseES4_ @653
    _ZNSt3__116__throw_bad_castB8ne200100Ev @654
    _ZNSt3__118basic_stringstreamIcNS_11char_traitsIcEENS_9allocatorIcEEEC1B8ne200100ERKNS_12basic_stringIcS2_S4_EEj @655
    _ZNSt3__118basic_stringstreamIcNS_11char_traitsIcEENS_9allocatorIcEEEC1B8ne200100Ev @656
    _ZNSt3__118basic_stringstreamIcNS_11char_traitsIcEENS_9allocatorIcEEED0Ev @657
    _ZNSt3__118basic_stringstreamIcNS_11char_traitsIcEENS_9allocatorIcEEED1Ev @658
    _ZNSt3__119piecewise_constructE @659 DATA
    _ZNSt3__120__throw_length_errorB8ne200100EPKc @660
    _ZNSt3__124__put_character_sequenceB8ne200100IcNS_11char_traitsIcEEEERNS_13basic_ostreamIT_T0_EES7_PKS4_y @661
    _ZNSt3__127__tree_balance_after_insertB8ne200100IPNS_16__tree_node_baseIPvEEEEvT_S5_ @662
    _ZNSt3__13mapIiiNS_4lessIiEENS_9allocatorINS_4pairIKiiEEEEE6insertB8ne200100INS_20__map_const_iteratorINS_21__tree_const_iteratorINS_12__value_typeIiiEEPNS_11__tree_nodeISD_PvEExEEEEEEvT_SK_ @663
    _ZNSt3__13mapIiiNS_4lessIiEENS_9allocatorINS_4pairIKiiEEEEEC2B8ne200100ESt16initializer_listIS6_ERKS2_ @664
    _ZNSt3__14endlB8ne200100IcNS_11char_traitsIcEEEERNS_13basic_ostreamIT_T0_EES7_ @665
    _ZNSt3__15dequeIP14TaskDescriptorNS_9allocatorIS2_EEE19__add_back_capacityEv @666
    _ZNSt3__15dequeIP14TaskDescriptorNS_9allocatorIS2_EEED2B8ne200100Ev @667
    _ZNSt3__15dequeIP7TaskMsgNS_9allocatorIS2_EEE19__add_back_capacityEv @668
    _ZNSt3__15dequeIP7TaskMsgNS_9allocatorIS2_EEED2B8ne200100Ev @669
    _ZNSt3__16__treeINS_12__value_typeIiN7omnetpp7cStdDevEEENS_19__map_value_compareIiS4_NS_4lessIiEELb1EEENS_9allocatorIS4_EEE25__emplace_unique_key_argsIiJRKNS_21piecewise_construct_tENS_5tupleIJOiEEENSG_IJEEEEEENS_4pairINS_15__tree_iteratorIS4_PNS_11__tree_nodeIS4_PvEExEEbEERKT_DpOT0_ @670
    _ZNSt3__16__treeINS_12__value_typeIiN7omnetpp7cStdDevEEENS_19__map_value_compareIiS4_NS_4lessIiEELb1EEENS_9allocatorIS4_EEE25__emplace_unique_key_argsIiJRKNS_21piecewise_construct_tENS_5tupleIJRKiEEENSG_IJEEEEEENS_4pairINS_15__tree_iteratorIS4_PNS_11__tree_nodeIS4_PvEExEEbEERKT_DpOT0_ @671
    _ZNSt3__16__treeINS_12__value_typeIiN7omnetpp7cStdDevEEENS_19__map_value_compareIiS4_NS_4lessIiEELb1EEENS_9allocatorIS4_EEE7destroyEPNS_11__tree_nodeIS4_PvEE @672
    _ZNSt3__16__treeINS_12__value_typeIiP14TaskDescriptorEENS_19__map_value_compareIiS4_NS_4lessIiEELb1EEENS_9allocatorIS4_EEE7destroyEPNS_11__tree_nodeIS4_PvEE @673
    _ZNSt3__16__treeINS_12__value_typeIiiEENS_19__map_value_compareIiS2_NS_4lessIiEELb1EEENS_9allocatorIS2_EEE12__find_equalIiEERPNS_16__tree_node_baseIPvEENS_21__tree_const_iteratorIS2_PNS_11__tree_nodeIS2_SC_EExEERPNS_15__tree_end_nodeISE_EESF_RKT_ @674
    _ZNSt3__16__treeINS_12__value_typeIiiEENS_19__map_value_compareIiS2_NS_4lessIiEELb1EEENS_9allocatorIS2_EEE14__assign_multiINS_21__tree_const_iteratorIS2_PNS_11__tree_nodeIS2_PvEExEEEEvT_SH_ @675
    _ZNSt3__16__treeINS_12__value_typeIiiEENS_19__map_value_compareIiS2_NS_4lessIiEELb1EEENS_9allocatorIS2_EEE15__assign_uniqueIPKNS_4pairIKiiEEEEvT_SG_ @676
    _ZNSt3__16__treeINS_12__value_typeIiiEENS_19__map_value_compareIiS2_NS_4lessIiEELb1EEENS_9allocatorIS2_EEE7destroyEPNS_11__tree_nodeIS2_PvEE @677
    _ZNSt3__16vectorIN7omnetpp6cQueueENS_9allocatorIS2_EEE20__throw_length_errorB8ne200100Ev @678
    _ZNSt3__16vectorIN7omnetpp6cQueueENS_9allocatorIS2_EEE8__appendEy @679
    _ZNSt3__16vectorIN7omnetpp6cQueueENS_9allocatorIS2_EEED2B8ne200100Ev @680
    _ZNSt3__16vectorIN7omnetpp7SimTimeENS_9allocatorIS2_EEE20__throw_length_errorB8ne200100Ev @681
    _ZNSt3__16vectorIN7omnetpp7SimTimeENS_9allocatorIS2_EEE8__appendEyRKS2_ @682
    _ZNSt3__16vectorIN7omnetpp7cStdDevENS_9allocatorIS2_EEE20__throw_length_errorB8ne200100Ev @683
    _ZNSt3__16vectorIN7omnetpp7cStdDevENS_9allocatorIS2_EEE8__appendEy @684
    _ZNSt3__16vectorINS0_IN7omnetpp7cStdDevENS_9allocatorIS2_EEEENS3_IS5_EEE20__throw_length_errorB8ne200100Ev @685
    _ZNSt3__16vectorINS0_IN7omnetpp7cStdDevENS_9allocatorIS2_EEEENS3_IS5_EEE8__appendEy @686
    _ZNSt3__16vectorINS0_IN7omnetpp7cStdDevENS_9allocatorIS2_EEEENS3_IS5_EEED2B8ne200100Ev @687
    _ZNSt3__16vectorINS0_INS_4listIP9NoCReqMsgNS_9allocatorIS3_EEEENS4_IS6_EEEENS4_IS8_EEE20__throw_length_errorB8ne200100Ev @688
    _ZNSt3__16vectorINS0_INS_4listIP9NoCReqMsgNS_9allocatorIS3_EEEENS4_IS6_EEEENS4_IS8_EEE6resizeEy @689
    _ZNSt3__16vectorINS0_INS_4listIP9NoCReqMsgNS_9allocatorIS3_EEEENS4_IS6_EEEENS4_IS8_EEE8__appendEy @690
    _ZNSt3__16vectorINS0_INS_4listIP9NoCReqMsgNS_9allocatorIS3_EEEENS4_IS6_EEEENS4_IS8_EEED2B8ne200100Ev @691
    _ZNSt3__16vectorINS_4listIP9NoCReqMsgNS_9allocatorIS3_EEEENS4_IS6_EEE20__throw_length_errorB8ne200100Ev @692
    _ZNSt3__16vectorINS_4listIP9NoCReqMsgNS_9allocatorIS3_EEEENS4_IS6_EEE26__swap_out_circular_bufferERNS_14__split_bufferIS6_RS7_EE @693
    _ZNSt3__16vectorINS_4listIP9NoCReqMsgNS_9allocatorIS3_EEEENS4_IS6_EEE8__appendEy @694
    _ZNSt3__16vectorIP14TaskDescriptorNS_9allocatorIS2_EEE20__throw_length_errorB8ne200100Ev @695
    _ZNSt3__16vectorIP14TaskDescriptorNS_9allocatorIS2_EEE9push_backB8ne200100ERKS2_ @696
    _ZNSt3__16vectorIP9NoCReqMsgNS_9allocatorIS2_EEE20__throw_length_errorB8ne200100Ev @697
    _ZNSt3__16vectorIP9NoCReqMsgNS_9allocatorIS2_EEE8__appendEyRKS2_ @698
    _ZNSt3__16vectorIPKNS0_IiNS_9allocatorIiEEEENS1_IS5_EEE20__throw_length_errorB8ne200100Ev @699
    _ZNSt3__16vectorIPKNS0_IiNS_9allocatorIiEEEENS1_IS5_EEE9push_backB8ne200100EOS5_ @700
    _ZNSt3__16vectorIbNS_9allocatorIbEEE20__throw_length_errorB8ne200100Ev @701
    _ZNSt3__16vectorIbNS_9allocatorIbEEE6resizeEyb @702
    _ZNSt3__16vectorIbNS_9allocatorIbEEE7reserveEy @703
    _ZNSt3__16vectorIiNS_9allocatorIiEEE18__assign_with_sizeB8ne200100IPKiS6_EEvT_T0_x @704
    _ZNSt3__16vectorIiNS_9allocatorIiEEE18__assign_with_sizeB8ne200100IPiS5_EEvT_T0_x @705
    _ZNSt3__16vectorIiNS_9allocatorIiEEE20__throw_length_errorB8ne200100Ev @706
    _ZNSt3__16vectorIiNS_9allocatorIiEEE8__appendEy @707
    _ZNSt3__16vectorIiNS_9allocatorIiEEE8__appendEyRKi @708
    _ZNSt3__1lsB8ne200100IcNS_11char_traitsIcEENS_9allocatorIcEEEERNS_13basic_ostreamIT_T0_EES9_RKNS_12basic_stringIS6_S7_T1_EE @709
    _ZSt28__throw_bad_array_new_lengthB8ne200100v @710
    _ZTCNSt3__114basic_ofstreamIcNS_11char_traitsIcEEEE0_NS_13basic_ostreamIcS2_EE @711 DATA
    _ZTCNSt3__118basic_stringstreamIcNS_11char_traitsIcEENS_9allocatorIcEEEE0_NS_13basic_istreamIcS2_EE @712 DATA
    _ZTCNSt3__118basic_stringstreamIcNS_11char_traitsIcEENS_9allocatorIcEEEE0_NS_14basic_iostreamIcS2_EE @713 DATA
    _ZTCNSt3__118basic_stringstreamIcNS_11char_traitsIcEENS_9allocatorIcEEEE16_NS_13basic_ostreamIcS2_EE @714 DATA
    _ZTI10InPortSync @715 DATA
    _ZTI10NoCFlitMsg @716 DATA
    _ZTI10PktFifoSrc @717 DATA
    _ZTI10SchedAsync @718 DATA
    _ZTI11InPortAsync @719 DATA
    _ZTI12NoCCreditMsg @720 DATA
    _ZTI14NOC_FLIT_TYPES @721 DATA
    _ZTI14inPortFlitInfo @722 DATA
    _ZTI17TaskMsgDescriptor @723 DATA
    _ZTI19NoCAckMsgDescriptor @724 DATA
    _ZTI19NoCGntMsgDescriptor @725 DATA
    _ZTI19NoCPopMsgDescriptor @726 DATA
    _ZTI19NoCReqMsgDescriptor @727 DATA
    _ZTI20NoCFlitMsgDescriptor @728 DATA
    _ZTI21InfiniteBWMultiVCSink @729 DATA
    _ZTI22NoCCreditMsgDescriptor @730 DATA
    _ZTI27InfiniteBWMultiVCSinkperSrc @731 DATA
    _ZTI5Sched @732 DATA
    _ZTI6TaskPE @733 DATA
    _ZTI7TaskMsg @734 DATA
    _ZTI8NOC_MSGS @735 DATA
    _ZTI8XYOPCalc @736 DATA
    _ZTI9FLUVCCalc @737 DATA
    _ZTI9NoCAckMsg @738 DATA
    _ZTI9NoCGntMsg @739 DATA
    _ZTI9NoCPopMsg @740 DATA
    _ZTI9NoCReqMsg @741 DATA
    _ZTI9SchedSync @742 DATA
    _ZTIN7omnetpp10cComponentE @743 DATA
    _ZTIN7omnetpp10cExceptionE @744 DATA
    _ZTIN7omnetpp10cSoftOwnerE @745 DATA
    _ZTIN7omnetpp10cWatchBaseE @746 DATA
    _ZTIN7omnetpp11noncopyableE @747 DATA
    _ZTIN7omnetpp12cNamedObjectE @748 DATA
    _ZTIN7omnetpp12cOwnedObjectE @749 DATA
    _ZTIN7omnetpp13cRuntimeErrorE @750 DATA
    _ZTIN7omnetpp13cSimpleModuleE @751 DATA
    _ZTIN7omnetpp16cClassDescriptorE @752 DATA
    _ZTIN7omnetpp16cDatarateChannelE @753 DATA
    _ZTIN7omnetpp17cStdVectorWatcherIP9NoCReqMsgEE @754 DATA
    _ZTIN7omnetpp17cStdVectorWatcherIiEE @755 DATA
    _ZTIN7omnetpp21cStdVectorWatcherBaseE @756 DATA
    _ZTIN7omnetpp23cGenericAssignableWatchIdEE @757 DATA
    _ZTIN7omnetpp23cGenericAssignableWatchIiEE @758 DATA
    _ZTIN7omnetpp23cNoncopyableOwnedObjectE @759 DATA
    _ZTIN7omnetpp6cEventE @760 DATA
    _ZTIN7omnetpp7cModuleE @761 DATA
    _ZTIN7omnetpp7cObjectE @762 DATA
    _ZTIN7omnetpp7cPacketE @763 DATA
    _ZTIN7omnetpp8cChannelE @764 DATA
    _ZTIN7omnetpp8cMessageE @765 DATA
    _ZTINSt3__113basic_filebufIcNS_11char_traitsIcEEEE @766 DATA
    _ZTINSt3__113basic_istreamIcNS_11char_traitsIcEEEE @767 DATA
    _ZTINSt3__113basic_ostreamIcNS_11char_traitsIcEEEE @768 DATA
    _ZTINSt3__114basic_iostreamIcNS_11char_traitsIcEEEE @769 DATA
    _ZTINSt3__114basic_ofstreamIcNS_11char_traitsIcEEEE @770 DATA
    _ZTINSt3__115basic_streambufIcNS_11char_traitsIcEEEE @771 DATA
    _ZTINSt3__115basic_stringbufIcNS_11char_traitsIcEENS_9allocatorIcEEEE @772 DATA
    _ZTINSt3__118basic_stringstreamIcNS_11char_traitsIcEENS_9allocatorIcEEEE @773 DATA
    _ZTINSt3__18ios_baseE @774 DATA
    _ZTINSt3__19basic_iosIcNS_11char_traitsIcEEEE @775 DATA
    _ZTIP10NoCFlitMsg @776 DATA
    _ZTIP12NoCCreditMsg @777 DATA
    _ZTIP7TaskMsg @778 DATA
    _ZTIP9NoCAckMsg @779 DATA
    _ZTIP9NoCGntMsg @780 DATA
    _ZTIP9NoCPopMsg @781 DATA
    _ZTIP9NoCReqMsg @782 DATA
    _ZTIPN7omnetpp16cDatarateChannelE @783 DATA
    _ZTIPN7omnetpp7cObjectE @784 DATA
    _ZTISt11logic_error @785 DATA
    _ZTISt12length_error @786 DATA
    _ZTISt20bad_array_new_length @787 DATA
    _ZTISt8bad_cast @788 DATA
    _ZTISt9bad_alloc @789 DATA
    _ZTISt9exception @790 DATA
    _ZTS10InPortSync @791 DATA
    _ZTS10NoCFlitMsg @792 DATA
    _ZTS10PktFifoSrc @793 DATA
    _ZTS10SchedAsync @794 DATA
    _ZTS11InPortAsync @795 DATA
    _ZTS12NoCCreditMsg @796 DATA
    _ZTS14NOC_FLIT_TYPES @797 DATA
    _ZTS14inPortFlitInfo @798 DATA
    _ZTS17TaskMsgDescriptor @799 DATA
    _ZTS19NoCAckMsgDescriptor @800 DATA
    _ZTS19NoCGntMsgDescriptor @801 DATA
    _ZTS19NoCPopMsgDescriptor @802 DATA
    _ZTS19NoCReqMsgDescriptor @803 DATA
    _ZTS20NoCFlitMsgDescriptor @804 DATA
    _ZTS21InfiniteBWMultiVCSink @805 DATA
    _ZTS22NoCCreditMsgDescriptor @806 DATA
    _ZTS27InfiniteBWMultiVCSinkperSrc @807 DATA
    _ZTS5Sched @808 DATA
    _ZTS6TaskPE @809 DATA
    _ZTS7TaskMsg @810 DATA
    _ZTS8NOC_MSGS @811 DATA
    _ZTS8XYOPCalc @812 DATA
    _ZTS9FLUVCCalc @813 DATA
    _ZTS9NoCAckMsg @814 DATA
    _ZTS9NoCGntMsg @815 DATA
    _ZTS9NoCPopMsg @816 DATA
    _ZTS9NoCReqMsg @817 DATA
    _ZTS9SchedSync @818 DATA
    _ZTSN7omnetpp10cComponentE @819 DATA
    _ZTSN7omnetpp10cExceptionE @820 DATA
    _ZTSN7omnetpp10cSoftOwnerE @821 DATA
    _ZTSN7omnetpp10cWatchBaseE @822 DATA
    _ZTSN7omnetpp11noncopyableE @823 DATA
    _ZTSN7omnetpp12cNamedObjectE @824 DATA
    _ZTSN7omnetpp12cOwnedObjectE @825 DATA
    _ZTSN7omnetpp13cRuntimeErrorE @826 DATA
    _ZTSN7omnetpp13cSimpleModuleE @827 DATA
    _ZTSN7omnetpp16cClassDescriptorE @828 DATA
    _ZTSN7omnetpp16cDatarateChannelE @829 DATA
    _ZTSN7omnetpp17cStdVectorWatcherIP9NoCReqMsgEE @830 DATA
    _ZTSN7omnetpp17cStdVectorWatcherIiEE @831 DATA
    _ZTSN7omnetpp21cStdVectorWatcherBaseE @832 DATA
    _ZTSN7omnetpp23cGenericAssignableWatchIdEE @833 DATA
    _ZTSN7omnetpp23cGenericAssignableWatchIiEE @834 DATA
    _ZTSN7omnetpp23cNoncopyableOwnedObjectE @835 DATA
    _ZTSN7omnetpp6cEventE @836 DATA
    _ZTSN7omnetpp7cModuleE @837 DATA
    _ZTSN7omnetpp7cObjectE @838 DATA
    _ZTSN7omnetpp7cPacketE @839 DATA
    _ZTSN7omnetpp8cChannelE @840 DATA
    _ZTSN7omnetpp8cMessageE @841 DATA
    _ZTSNSt3__113basic_filebufIcNS_11char_traitsIcEEEE @842 DATA
    _ZTSNSt3__113basic_istreamIcNS_11char_traitsIcEEEE @843 DATA
    _ZTSNSt3__113basic_ostreamIcNS_11char_traitsIcEEEE @844 DATA
    _ZTSNSt3__114basic_iostreamIcNS_11char_traitsIcEEEE @845 DATA
    _ZTSNSt3__114basic_ofstreamIcNS_11char_traitsIcEEEE @846 DATA
    _ZTSNSt3__115basic_streambufIcNS_11char_traitsIcEEEE @847 DATA
    _ZTSNSt3__115basic_stringbufIcNS_11char_traitsIcEENS_9allocatorIcEEEE @848 DATA
    _ZTSNSt3__118basic_stringstreamIcNS_11char_traitsIcEENS_9allocatorIcEEEE @849 DATA
    _ZTSNSt3__18ios_baseE @850 DATA
    _ZTSNSt3__19basic_iosIcNS_11char_traitsIcEEEE @851 DATA
    _ZTSP10NoCFlitMsg @852 DATA
    _ZTSP12NoCCreditMsg @853 DATA
    _ZTSP7TaskMsg @854 DATA
    _ZTSP9NoCAckMsg @855 DATA
    _ZTSP9NoCGntMsg @856 DATA
    _ZTSP9NoCPopMsg @857 DATA
    _ZTSP9NoCReqMsg @858 DATA
    _ZTSPN7omnetpp16cDatarateChannelE @859 DATA
    _ZTSPN7omnetpp7cObjectE @860 DATA
    _ZTSSt11logic_error @861 DATA
    _ZTSSt12length_error @862 DATA
    _ZTSSt20bad_array_new_length @863 DATA
    _ZTSSt8bad_cast @864 DATA
    _ZTSSt9bad_alloc @865 DATA
    _ZTSSt9exception @866 DATA
    _ZTTNSt3__114basic_ofstreamIcNS_11char_traitsIcEEEE @867 DATA
    _ZTTNSt3__118basic_stringstreamIcNS_11char_traitsIcEENS_9allocatorIcEEEE @868 DATA
    _ZTV10InPortSync @869 DATA
    _ZTV10NoCFlitMsg @870 DATA
    _ZTV10PktFifoSrc @871 DATA
    _ZTV10SchedAsync @872 DATA
    _ZTV11InPortAsync @873 DATA
    _ZTV12NoCCreditMsg @874 DATA
    _ZTV14inPortFlitInfo @875 DATA
    _ZTV17TaskMsgDescriptor @876 DATA
    _ZTV19NoCAckMsgDescriptor @877 DATA
    _ZTV19NoCGntMsgDescriptor @878 DATA
    _ZTV19NoCPopMsgDescriptor @879 DATA
    _ZTV19NoCReqMsgDescriptor @880 DATA
    _ZTV20NoCFlitMsgDescriptor @881 DATA
    _ZTV21InfiniteBWMultiVCSink @882 DATA
    _ZTV22NoCCreditMsgDescriptor @883 DATA
    _ZTV27InfiniteBWMultiVCSinkperSrc @884 DATA
    _ZTV6TaskPE @885 DATA
    _ZTV7TaskMsg @886 DATA
    _ZTV8XYOPCalc @887 DATA
    _ZTV9FLUVCCalc @888 DATA
    _ZTV9NoCAckMsg @889 DATA
    _ZTV9NoCGntMsg @890 DATA
    _ZTV9NoCPopMsg @891 DATA
    _ZTV9NoCReqMsg @892 DATA
    _ZTV9SchedSync @893 DATA
    _ZTVN7omnetpp17cStdVectorWatcherIP9NoCReqMsgEE @894 DATA
    _ZTVN7omnetpp17cStdVectorWatcherIiEE @895 DATA
    _ZTVN7omnetpp23cGenericAssignableWatchIdEE @896 DATA
    _ZTVN7omnetpp23cGenericAssignableWatchIiEE @897 DATA
    _ZTVNSt3__113basic_filebufIcNS_11char_traitsIcEEEE @898 DATA
    _ZTVNSt3__114basic_ofstreamIcNS_11char_traitsIcEEEE @899 DATA
    _ZTVNSt3__115basic_stringbufIcNS_11char_traitsIcEENS_9allocatorIcEEEE @900 DATA
    _ZTVNSt3__118basic_stringstreamIcNS_11char_traitsIcEENS_9allocatorIcEEEE @901 DATA
    _ZThn16_NSt3__118basic_stringstreamIcNS_11char_traitsIcEENS_9allocatorIcEEED0Ev @902
    _ZThn16_NSt3__118basic_stringstreamIcNS_11char_traitsIcEENS_9allocatorIcEEED1Ev @903
    _ZTv0_n24_NSt3__114basic_ofstreamIcNS_11char_traitsIcEEED0Ev @904
    _ZTv0_n24_NSt3__114basic_ofstreamIcNS_11char_traitsIcEEED1Ev @905
    _ZTv0_n24_NSt3__118basic_stringstreamIcNS_11char_traitsIcEENS_9allocatorIcEEED0Ev @906
    _ZTv0_n24_NSt3__118basic_stringstreamIcNS_11char_traitsIcEENS_9allocatorIcEEED1Ev @907
